target datalayout = "e-m:e-p270:32:32-p271:32:32-p272:64:64-i64:64-i128:128-f80:128-n8:16:32:64-S128"
target triple = "x86_64-unknown-linux-gnu"

%struct.QTailQLink = type { ptr, ptr }
%struct.BlockDriverState = type { i32, i8, i8, i8, i8, i8, ptr, ptr, ptr, %struct.anon.0, i8, [4096 x i8], [4096 x i8], [4096 x i8], [16 x i8], ptr, [4096 x i8], %struct.BlockLimits, i32, i32, i32, i32, [32 x i8], %union.anon, %union.anon.1, %union.anon.2, i32, [16 x %struct.anon.3], ptr, %struct.anon.4, ptr, ptr, %struct.anon.5, ptr, ptr, i32, ptr, i64, i64, %struct.QemuMutex, %struct.anon.6, %struct.Stat64, i32, i32, i32, i32, i32, i32, %struct.QemuMutex, %struct.anon.7, %struct.CoQueue, i8, i32, i8, %struct.CoMutex, ptr, ptr }
%struct.anon.0 = type { ptr }
%struct.BlockLimits = type { i32, i64, i32, i64, i32, i32, i32, i64, i32, i64, i64, i32, i8, i32, i32, i32, i32, i32, i32, i32 }
%union.anon = type { %struct.QTailQLink }
%union.anon.1 = type { %struct.QTailQLink }
%union.anon.2 = type { %struct.QTailQLink }
%struct.anon.3 = type { ptr }
%struct.anon.4 = type { ptr }
%struct.anon.5 = type { ptr }
%struct.anon.6 = type { ptr }
%struct.Stat64 = type { i64 }
%struct.QemuMutex = type { %union.pthread_mutex_t, i8 }
%union.pthread_mutex_t = type { %struct.__pthread_mutex_s }
%struct.__pthread_mutex_s = type { i32, i32, i32, i32, i32, i16, i16, %struct.__pthread_internal_list }
%struct.__pthread_internal_list = type { ptr, ptr }
%struct.anon.7 = type { ptr }
%struct.CoQueue = type { %struct.anon.8 }
%struct.anon.8 = type { ptr, ptr }
%struct.CoMutex = type { i32, ptr, %struct.anon.9, %struct.anon.9, i32, i32, ptr }
%struct.anon.9 = type { ptr }
%struct.BDRVReplicationState = type { i32, i32, ptr, ptr, ptr, ptr, ptr, ptr, ptr, i8, i8, i32 }

; Function Attrs: nounwind sspstrong uwtable
define internal i32 @replication_return_value(ptr noundef %s, i32 noundef %ret) #0 {
entry:
  %retval = alloca i32, align 4
  %s.addr = alloca ptr, align 8
  %ret.addr = alloca i32, align 4
  store ptr %s, ptr %s.addr, align 8
  store i32 %ret, ptr %ret.addr, align 4
  %0 = load ptr, ptr %s.addr, align 8
  %mode = getelementptr inbounds %struct.BDRVReplicationState, ptr %0, i32 0, i32 0
  %1 = load i32, ptr %mode, align 8
  %cmp = icmp eq i32 %1, 1
  br i1 %cmp, label %if.then, label %if.end

if.then:                                          ; preds = %entry
  %2 = load i32, ptr %ret.addr, align 4
  store i32 %2, ptr %retval, align 4
  br label %return

if.end:                                           ; preds = %entry
  %3 = load i32, ptr %ret.addr, align 4
  %cmp1 = icmp slt i32 %3, 0
  br i1 %cmp1, label %if.then2, label %if.end3

if.then2:                                         ; preds = %if.end
  %4 = load i32, ptr %ret.addr, align 4
  %5 = load ptr, ptr %s.addr, align 8
  %error = getelementptr inbounds %struct.BDRVReplicationState, ptr %5, i32 0, i32 11
  store i32 %4, ptr %error, align 4
  store i32 0, ptr %ret.addr, align 4
  br label %if.end3

if.end3:                                          ; preds = %if.then2, %if.end
  %6 = load i32, ptr %ret.addr, align 4
  store i32 %6, ptr %retval, align 4
  br label %return

return:                                           ; preds = %if.end3, %if.then
  %7 = load i32, ptr %retval, align 4
  ret i32 %7
}

; Function Attrs: nounwind sspstrong uwtable
define internal i32 @replication_get_io_status(ptr noundef %s) #0 {
entry:
  %retval = alloca i32, align 4
  %s.addr = alloca ptr, align 8
  store ptr %s, ptr %s.addr, align 8
  %0 = load ptr, ptr %s.addr, align 8
  %stage = getelementptr inbounds %struct.BDRVReplicationState, ptr %0, i32 0, i32 1
  %1 = load i32, ptr %stage, align 4
  switch i32 %1, label %sw.default [
    i32 0, label %sw.bb
    i32 1, label %sw.bb1
    i32 2, label %sw.bb2
    i32 3, label %sw.bb3
    i32 4, label %sw.bb7
  ]

sw.bb:                                            ; preds = %entry
  store i32 -5, ptr %retval, align 4
  br label %return

sw.bb1:                                           ; preds = %entry
  store i32 0, ptr %retval, align 4
  br label %return

sw.bb2:                                           ; preds = %entry
  %2 = load ptr, ptr %s.addr, align 8
  %mode = getelementptr inbounds %struct.BDRVReplicationState, ptr %2, i32 0, i32 0
  %3 = load i32, ptr %mode, align 8
  %cmp = icmp eq i32 %3, 0
  %cond = select i1 %cmp, i32 -5, i32 0
  store i32 %cond, ptr %retval, align 4
  br label %return

sw.bb3:                                           ; preds = %entry
  %4 = load ptr, ptr %s.addr, align 8
  %mode4 = getelementptr inbounds %struct.BDRVReplicationState, ptr %4, i32 0, i32 0
  %5 = load i32, ptr %mode4, align 8
  %cmp5 = icmp eq i32 %5, 0
  %cond6 = select i1 %cmp5, i32 -5, i32 1
  store i32 %cond6, ptr %retval, align 4
  br label %return

sw.bb7:                                           ; preds = %entry
  %6 = load ptr, ptr %s.addr, align 8
  %mode8 = getelementptr inbounds %struct.BDRVReplicationState, ptr %6, i32 0, i32 0
  %7 = load i32, ptr %mode8, align 8
  %cmp9 = icmp eq i32 %7, 0
  %cond10 = select i1 %cmp9, i32 -5, i32 0
  store i32 %cond10, ptr %retval, align 4
  br label %return

sw.default:                                       ; preds = %entry
  call void @abort() #6
  unreachable

return:                                           ; preds = %sw.bb7, %sw.bb3, %sw.bb2, %sw.bb1, %sw.bb
  %8 = load i32, ptr %retval, align 4
  ret i32 %8
}

; Function Attrs: nounwind sspstrong uwtable
define internal i32 @replication_co_readv(ptr noundef %bs, i64 noundef %sector_num, i32 noundef %remaining_sectors, ptr noundef %qiov) #0 {
entry:
  %retval = alloca i32, align 4
  %bs.addr = alloca ptr, align 8
  %sector_num.addr = alloca i64, align 8
  %remaining_sectors.addr = alloca i32, align 4
  %qiov.addr = alloca ptr, align 8
  %s = alloca ptr, align 8
  %ret = alloca i32, align 4
  store ptr %bs, ptr %bs.addr, align 8
  store i64 %sector_num, ptr %sector_num.addr, align 8
  store i32 %remaining_sectors, ptr %remaining_sectors.addr, align 4
  store ptr %qiov, ptr %qiov.addr, align 8
  %0 = load ptr, ptr %bs.addr, align 8
  %opaque = getelementptr inbounds %struct.BlockDriverState, ptr %0, i32 0, i32 7
  %1 = load ptr, ptr %opaque, align 8
  store ptr %1, ptr %s, align 8
  %2 = load ptr, ptr %s, align 8
  %mode = getelementptr inbounds %struct.BDRVReplicationState, ptr %2, i32 0, i32 0
  %3 = load i32, ptr %mode, align 8
  %cmp = icmp eq i32 %3, 0
  br i1 %cmp, label %if.then, label %if.end

if.then:                                          ; preds = %entry
  store i32 -5, ptr %retval, align 4
  br label %return

if.end:                                           ; preds = %entry
  %4 = load ptr, ptr %s, align 8
  %call = call i32 @replication_get_io_status(ptr noundef %4)
  store i32 %call, ptr %ret, align 4
  %5 = load i32, ptr %ret, align 4
  %cmp1 = icmp slt i32 %5, 0
  br i1 %cmp1, label %if.then2, label %if.end3

if.then2:                                         ; preds = %if.end
  %6 = load i32, ptr %ret, align 4
  store i32 %6, ptr %retval, align 4
  br label %return

if.end3:                                          ; preds = %if.end
  %7 = load ptr, ptr %bs.addr, align 8
  %file = getelementptr inbounds %struct.BlockDriverState, ptr %7, i32 0, i32 31
  %8 = load ptr, ptr %file, align 8
  %9 = load i64, ptr %sector_num.addr, align 8
  %mul = mul i64 %9, 512
  %10 = load i32, ptr %remaining_sectors.addr, align 4
  %conv = sext i32 %10 to i64
  %mul4 = mul i64 %conv, 512
  %11 = load ptr, ptr %qiov.addr, align 8
  %call5 = call i32 @bdrv_co_preadv(ptr noundef %8, i64 noundef %mul, i64 noundef %mul4, ptr noundef %11, i32 noundef 0)
  store i32 %call5, ptr %ret, align 4
  %12 = load ptr, ptr %s, align 8
  %13 = load i32, ptr %ret, align 4
  %call6 = call i32 @replication_return_value(ptr noundef %12, i32 noundef %13)
  store i32 %call6, ptr %retval, align 4
  br label %return

return:                                           ; preds = %if.end3, %if.then2, %if.then
  %14 = load i32, ptr %retval, align 4
  ret i32 %14
}