; Function Attrs: nounwind sspstrong uwtable
define internal i32 @replication_co_readv(ptr noundef readonly captures(none) %bs, i64 noundef %sector_num, i32 noundef %remaining_sectors, ptr noundef %qiov) #0 {
entry:
  %opaque = getelementptr inbounds nuw i8, ptr %bs, i64 24
  %0 = load ptr, ptr %opaque, align 8
  %1 = load i32, ptr %0, align 8
  %cmp = icmp eq i32 %1, 0
  br i1 %cmp, label %return, label %if.end

if.end:                                           ; preds = %entry
  %stage.i = getelementptr inbounds nuw i8, ptr %0, i64 4
  %2 = load i32, ptr %stage.i, align 4
  switch i32 %2, label %sw.default.i [
    i32 0, label %return
    i32 1, label %if.end3
    i32 2, label %if.end3
    i32 3, label %if.end3
    i32 4, label %if.end3
  ]

sw.default.i:                                     ; preds = %if.end
  tail call void @abort() #10
  unreachable

if.end3:                                          ; preds = %if.end, %if.end, %if.end, %if.end
  %file = getelementptr inbounds nuw i8, ptr %bs, i64 16840
  %3 = load ptr, ptr %file, align 8
  %mul = shl i64 %sector_num, 9
  %conv = sext i32 %remaining_sectors to i64
  %mul4 = shl nsw i64 %conv, 9
  %call5 = tail call i32 @bdrv_co_preadv(ptr noundef %3, i64 noundef %mul, i64 noundef %mul4, ptr noundef %qiov, i32 noundef 0) #8
  %4 = load i32, ptr %0, align 8
  %cmp.i6 = icmp ne i32 %4, 1
  %cmp1.i = icmp slt i32 %call5, 0
  %or.cond.i = and i1 %cmp1.i, %cmp.i6
  br i1 %or.cond.i, label %if.then2.i, label %return

if.then2.i:                                       ; preds = %if.end3
  %error.i = getelementptr inbounds nuw i8, ptr %0, i64 68
  store i32 %call5, ptr %error.i, align 4
  br label %return

return:                                           ; preds = %if.then2.i, %if.end3, %if.end, %entry
  %retval.0 = phi i32 [ -5, %entry ], [ -5, %if.end ], [ %call5, %if.end3 ], [ 0, %if.then2.i ]
  ret i32 %retval.0
}